; Function Attrs: nofree norecurse nosync nounwind sspstrong memory(read, argmem: readwrite, inaccessiblemem: none) uwtable
define internal i32 @mbc_case_fold(i32 %0, ptr noundef captures(none) %1, ptr noundef readnone captures(address) %2, ptr noundef %3, ptr readnone captures(none) %4) #6 {
  %6 = load ptr, ptr %1, align 8, !tbaa !13
  %7 = load i8, ptr %6, align 1, !tbaa !6
  %8 = icmp sgt i8 %7, -1
  br i1 %8, label %9, label %15

9:                                                ; preds = %5
  %10 = zext nneg i8 %7 to i64
  %11 = getelementptr inbounds nuw [0 x i8], ptr @OnigEncAsciiToLowerCaseTable, i64 0, i64 %10
  %12 = load i8, ptr %11, align 1, !tbaa !6
  store i8 %12, ptr %3, align 1, !tbaa !6
  %13 = load ptr, ptr %1, align 8, !tbaa !13
  %14 = getelementptr inbounds nuw i8, ptr %13, i64 1
  br label %74

15:                                               ; preds = %5
  %16 = getelementptr inbounds nuw i8, ptr %6, i64 1
  %17 = zext i8 %7 to i64
  %18 = getelementptr inbounds nuw [256 x i8], ptr @trans, i64 0, i64 %17
  %19 = load i8, ptr %18, align 1, !tbaa !6
  %20 = sext i8 %19 to i64
  %21 = icmp slt i8 %19, 0
  br i1 %21, label %22, label %24

22:                                               ; preds = %15
  %23 = zext i8 %7 to i32
  br label %mbc_to_code.exit

24:                                               ; preds = %15
  %25 = icmp eq ptr %16, %2
  br i1 %25, label %mbc_enc_len.exit.i, label %26

26:                                               ; preds = %24
  %27 = load i8, ptr %16, align 1, !tbaa !6
  %28 = zext i8 %27 to i64
  %29 = getelementptr inbounds nuw [2 x [256 x i8]], ptr @trans, i64 0, i64 %20, i64 %28
  %30 = load i8, ptr %29, align 1, !tbaa !6
  %31 = icmp eq i8 %30, -1
  %32 = select i1 %31, i32 2, i32 -1
  br label %.preheader.i

mbc_enc_len.exit.i:                               ; preds = %24
  %33 = getelementptr inbounds nuw [256 x i32], ptr @EncLen_SJIS, i64 0, i64 %17
  %34 = load i32, ptr %33, align 4, !tbaa !9
  %35 = sub nsw i32 0, %34
  br label %.preheader.i

.preheader.i:                                     ; preds = %26, %mbc_enc_len.exit.i
  %.0.i30.i = phi i32 [ %35, %mbc_enc_len.exit.i ], [ %32, %26 ]
  %36 = zext i8 %7 to i32
  %37 = icmp sgt i32 %.0.i30.i, 1
  %.not23.i = icmp ult ptr %16, %2
  %or.cond24.i = select i1 %37, i1 %.not23.i, i1 false
  br i1 %or.cond24.i, label %.lr.ph.i, label %mbc_to_code.exit

.lr.ph.i:                                         ; preds = %.preheader.i, %.lr.ph.i
  %.01927.i = phi ptr [ %.019.i, %.lr.ph.i ], [ %16, %.preheader.i ]
  %.026.i = phi i32 [ %41, %.lr.ph.i ], [ %36, %.preheader.i ]
  %.01825.i = phi i32 [ %42, %.lr.ph.i ], [ 1, %.preheader.i ]
  %38 = load i8, ptr %.01927.i, align 1, !tbaa !6
  %39 = zext i8 %38 to i32
  %40 = shl i32 %.026.i, 8
  %41 = or disjoint i32 %40, %39
  %42 = add nuw nsw i32 %.01825.i, 1
  %.019.i = getelementptr inbounds nuw i8, ptr %.01927.i, i64 1
  %43 = icmp slt i32 %42, %.0.i30.i
  %.not.i = icmp ult ptr %.019.i, %2
  %or.cond.i = select i1 %43, i1 %.not.i, i1 false
  br i1 %or.cond.i, label %.lr.ph.i, label %mbc_to_code.exit, !llvm.loop !11

mbc_to_code.exit:                                 ; preds = %.lr.ph.i, %22, %.preheader.i
  %.017.i = phi i32 [ %36, %.preheader.i ], [ %23, %22 ], [ %41, %.lr.ph.i ]
  %44 = add i32 %.017.i, -33376
  %45 = icmp ult i32 %44, 26
  br i1 %45, label %46, label %48

46:                                               ; preds = %mbc_to_code.exit
  %47 = add nuw nsw i32 %.017.i, 33
  br label %get_lower_case.exit

48:                                               ; preds = %mbc_to_code.exit
  %49 = add i32 %.017.i, -33695
  %50 = icmp ult i32 %49, 24
  br i1 %50, label %51, label %53

51:                                               ; preds = %48
  %52 = add nuw nsw i32 %.017.i, 32
  br label %get_lower_case.exit

53:                                               ; preds = %48
  %54 = add i32 %.017.i, -33856
  %55 = icmp ult i32 %54, 33
  br i1 %55, label %56, label %get_lower_case.exit

56:                                               ; preds = %53
  %57 = icmp samesign ugt i32 %.017.i, 33870
  %58 = select i1 %57, i32 49, i32 48
  %59 = add nuw nsw i32 %58, %.017.i
  br label %get_lower_case.exit

get_lower_case.exit:                              ; preds = %46, %51, %53, %56
  %.0.i = phi i32 [ %47, %46 ], [ %52, %51 ], [ %59, %56 ], [ %.017.i, %53 ]
  %60 = and i32 %.0.i, 65280
  %.not.i14 = icmp eq i32 %60, 0
  br i1 %.not.i14, label %code_to_mbc.exit, label %61

61:                                               ; preds = %get_lower_case.exit
  %62 = lshr i32 %.0.i, 8
  %63 = trunc i32 %62 to i8
  %64 = getelementptr inbounds nuw i8, ptr %3, i64 1
  store i8 %63, ptr %3, align 1, !tbaa !6
  br label %code_to_mbc.exit

code_to_mbc.exit:                                 ; preds = %get_lower_case.exit, %61
  %.0.i15 = phi ptr [ %64, %61 ], [ %3, %get_lower_case.exit ]
  %65 = trunc i32 %.0.i to i8
  %66 = getelementptr inbounds nuw i8, ptr %.0.i15, i64 1
  store i8 %65, ptr %.0.i15, align 1, !tbaa !6
  %67 = ptrtoint ptr %66 to i64
  %68 = ptrtoint ptr %3 to i64
  %69 = sub i64 %67, %68
  %70 = trunc i64 %69 to i32
  %71 = load ptr, ptr %1, align 8, !tbaa !13
  %sext = shl i64 %69, 32
  %72 = ashr exact i64 %sext, 32
  %73 = getelementptr inbounds i8, ptr %71, i64 %72
  br label %74

74:                                               ; preds = %code_to_mbc.exit, %9
  %storemerge = phi ptr [ %73, %code_to_mbc.exit ], [ %14, %9 ]
  %.0 = phi i32 [ %70, %code_to_mbc.exit ], [ 1, %9 ]
  store ptr %storemerge, ptr %1, align 8, !tbaa !13
  ret i32 %.0
}